; Function Attrs: nounwind uwtable
define range(i32 0, 2) i32 @agraphattr_delete(ptr noundef %0) local_unnamed_addr #0 {
  store ptr %0, ptr @Ag_G_global, align 8, !tbaa !3
  %2 = load ptr, ptr @AgDataRecName, align 8, !tbaa !15
  %3 = tail call ptr @aggetrec(ptr noundef %0, ptr noundef %2, i32 noundef 0) #12
  %.not = icmp eq ptr %3, null
  br i1 %.not, label %7, label %4

4:                                                ; preds = %1
  tail call fastcc void @freeattr(ptr noundef %0, ptr noundef %3)
  %5 = load ptr, ptr %3, align 8, !tbaa !46
  %6 = tail call i32 @agdelrec(ptr noundef %0, ptr noundef %5) #12
  br label %7

7:                                                ; preds = %4, %1
  %8 = tail call ptr @aggetrec(ptr noundef %0, ptr noundef nonnull @DataDictName, i32 noundef 0) #12
  %.not17 = icmp eq ptr %8, null
  br i1 %.not17, label %24, label %9

9:                                                ; preds = %7
  %10 = getelementptr inbounds nuw i8, ptr %8, i64 16
  %11 = load ptr, ptr %10, align 8, !tbaa !32
  %12 = tail call i32 @agdtclose(ptr noundef %0, ptr noundef %11) #12
  %.not18 = icmp eq i32 %12, 0
  br i1 %.not18, label %13, label %24

13:                                               ; preds = %9
  %14 = getelementptr inbounds nuw i8, ptr %8, i64 24
  %15 = load ptr, ptr %14, align 8, !tbaa !33
  %16 = tail call i32 @agdtclose(ptr noundef %0, ptr noundef %15) #12
  %.not19 = icmp eq i32 %16, 0
  br i1 %.not19, label %17, label %24

17:                                               ; preds = %13
  %18 = getelementptr inbounds nuw i8, ptr %8, i64 32
  %19 = load ptr, ptr %18, align 8, !tbaa !29
  %20 = tail call i32 @agdtclose(ptr noundef %0, ptr noundef %19) #12
  %.not20 = icmp eq i32 %20, 0
  br i1 %.not20, label %21, label %24

21:                                               ; preds = %17
  %22 = load ptr, ptr %8, align 8, !tbaa !47
  %23 = tail call i32 @agdelrec(ptr noundef %0, ptr noundef %22) #12
  br label %24

24:                                               ; preds = %7, %21, %17, %13, %9
  %.0 = phi i32 [ 1, %9 ], [ 1, %13 ], [ 1, %17 ], [ 0, %21 ], [ 0, %7 ]
  ret i32 %.0
}